; Function Attrs: mustprogress nofree norecurse nosync nounwind willreturn memory(argmem: readwrite) uwtable
define void @_ZN8facebook4yoga4Node20setLayoutHadOverflowEb(ptr noundef nonnull align 8 captures(none) dereferenceable(584) %0, i1 noundef zeroext %1) local_unnamed_addr #12 align 2 {
  %3 = getelementptr inbounds nuw i8, ptr %0, i64 424
  %4 = load i8, ptr %3, align 8
  %5 = select i1 %1, i8 4, i8 0
  %6 = and i8 %4, -5
  %7 = or disjoint i8 %6, %5
  store i8 %7, ptr %3, align 8
  ret void
}